; Function Attrs: nounwind uwtable
define range(i32 0, 2) i32 @ENGINE_up_ref(ptr noundef captures(address_is_null) %0) local_unnamed_addr #0 {
  %2 = icmp eq ptr %0, null
  br i1 %2, label %3, label %4

3:                                                ; preds = %1
  tail call void @ERR_new() #4
  tail call void @ERR_set_debug(ptr noundef nonnull @.str, i32 noundef 484, ptr noundef nonnull @__func__.ENGINE_up_ref) #4
  tail call void (i32, i32, ptr, ...) @ERR_set_error(i32 noundef 38, i32 noundef 786690, ptr noundef null) #4
  br label %7

4:                                                ; preds = %1
  %5 = getelementptr inbounds nuw i8, ptr %0, i64 156
  %6 = atomicrmw add ptr %5, i32 1 monotonic, align 4
  br label %7

7:                                                ; preds = %4, %3
  %.0 = phi i32 [ 0, %3 ], [ 1, %4 ]
  ret i32 %.0
}